Certificate:
    Data:
        Version: 3 (0x2)
        Serial Number:
            aa:d6:07:ac:8f:b0:2b:d9
        Signature Algorithm: sha1WithRSAEncryption
        Issuer: C=AU, ST=Some-State, O=Test Company, CN=Mr Test
        Validity
            Not Before: Mar  9 14:57:07 2012 GMT
            Not After : Mar  9 14:57:07 2015 GMT
        Subject: C=AU, ST=Some-State, O=Test Company, CN=Mr Test
        Subject Public Key Info:
            Public Key Algorithm: rsaEncryption
                Public-Key: (1024 bit)
                Modulus:
                    00:d3:3a:34:af:1a:dc:72:3a:b5:f2:65:6b:39:b7:
                    ad:77:0a:19:9d:94:dc:d2:4e:90:0a:0d:5a:a0:36:
                    98:fa:16:be:1a:b4:ed:0b:ef:74:41:f3:e7:4e:e3:
                    d6:21:f0:6e:dc:48:6b:c0:e1:2b:3e:ad:fb:81:23:
                    47:fe:b6:6d:79:e0:3e:00:be:93:26:18:cd:b1:a7:
                    fb:39:64:6e:67:7a:d3:b1:9b:4e:03:76:41:0f:25:
                    cc:1e:57:38:39:6f:cc:1a:ae:b6:17:57:60:41:2b:
                    3d:47:5d:df:ee:8d:f8:9f:37:e7:eb:11:24:ee:7d:
                    81:07:7f:86:12:31:cf:9a:0d
                Exponent: 65537 (0x10001)
        X509v3 extensions:
            X509v3 Subject Key Identifier: 
                83:E3:90:4F:27:1F:C2:3F:94:F6:8B:C8:9E:2A:4E:8B:45:81:14:8A
            X509v3 Authority Key Identifier: 
                keyid:83:E3:90:4F:27:1F:C2:3F:94:F6:8B:C8:9E:2A:4E:8B:45:81:14:8A

            X509v3 Basic Constraints: 
                CA:TRUE
    Signature Algorithm: sha1WithRSAEncryption
        55:9a:5f:22:a4:f6:d5:c6:0e:fe:32:fe:8a:51:ff:38:5e:9e:
        1a:47:e0:12:1b:ec:bb:91:cb:16:6e:a3:6d:f9:66:1b:7d:76:
        28:07:64:1a:52:b1:b2:45:d3:5e:29:6a:3f:70:7b:90:9d:cb:
        cb:ca:fa:26:5b:78:82:13:6c:d8:55:ea:01:a8:39:ff:ce:de:
        5d:ad:76:08:ce:f4:30:56:61:ac:96:c2:e5:e5:c8:ee:c9:4e:
        e5:ff:a0:38:8f:80:31:ab:d9:ea:0b:45:58:6c:8c:c5:ba:65:
        77:0c:ae:b8:3a:98:1d:0c:d8:c4:c5:b5:d6:68:32:37:65:cd:
        fa:98
-----BEGIN CERTIFICATE-----
MIICZDCCAc2gAwIBAgIJAKrWB6yPsCvZMA0GCSqGSIb3DQEBBQUAMEsxCzAJBgNV
BAYTAkFVMRMwEQYDVQQIDApTb21lLVN0YXRlMRUwEwYDVQQKDAxUZXN0IENvbXBh
bnkxEDAOBgNVBAMMB01yIFRlc3QwHhcNMTIwMzA5MTQ1NzA3WhcNMTUwMzA5MTQ1
NzA3WjBLMQswCQYDVQQGEwJBVTETMBEGA1UECAwKU29tZS1TdGF0ZTEVMBMGA1UE
CgwMVGVzdCBDb21wYW55MRAwDgYDVQQDDAdNciBUZXN0MIGfMA0GCSqGSIb3DQEB
AQUAA4GNADCBiQKBgQDTOjSvGtxyOrXyZWs5t613ChmdlNzSTpAKDVqgNpj6Fr4a
tO0L73RB8+dO49Yh8G7cSGvA4Ss+rfuBI0f+tm154D4AvpMmGM2xp/s5ZG5netOx
m04DdkEPJcweVzg5b8warrYXV2BBKz1HXd/ujfifN+frESTufYEHf4YSMc+aDQID
AQABo1AwTjAdBgNVHQ4EFgQUg+OQTycfwj+U9ovInipOi0WBFIowHwYDVR0jBBgw
FoAUg+OQTycfwj+U9ovInipOi0WBFIowDAYDVR0TBAUwAwEB/zANBgkqhkiG9w0B
AQUFAAOBgQBVml8ipPbVxg7+Mv6KUf84Xp4aR+ASG+y7kcsWbqNt+WYbfXYoB2Qa
UrGyRdNeKWo/cHuQncvLyvomW3iCE2zYVeoBqDn/zt5drXYIzvQwVmGslsLl5cju
yU7l/6A4j4Axq9nqC0VYbIzFumV3DK64OpgdDNjExbXWaDI3Zc36mA==
-----END CERTIFICATE-----
