Certificate:
    Data:
        Version: 3 (0x2)
        Serial Number:
            9a:bb:68:98:26:e0:37:bd
        Signature Algorithm: sha1WithRSAEncryption
        Issuer: C=US, ST=Some-State, O=Example Company, CN=OmniAuth SAML Testing Certificate
        Validity
            Not Before: Nov  8 20:29:51 2012 GMT
            Not After : Dec  8 20:29:51 2012 GMT
        Subject: C=US, ST=Some-State, O=Example Company, CN=OmniAuth SAML Testing Certificate
        Subject Public Key Info:
            Public Key Algorithm: rsaEncryption
            RSA Public Key: (1024 bit)
                Modulus (1024 bit):
                    00:cf:08:3a:45:a9:21:7f:a6:e8:87:91:36:ce:f7:
                    bd:2e:9e:9d:4a:33:13:76:b2:61:15:0d:56:45:9c:
                    0c:39:f4:4e:ec:63:c3:f5:ce:d1:7a:d9:f1:b8:f6:
                    e0:e8:fc:81:7d:27:45:a0:60:89:bc:cb:30:0c:93:
                    1a:ec:36:40:95:b8:2c:7f:55:b2:3b:0f:60:68:7c:
                    e0:7f:88:fb:f5:79:45:a6:2b:37:5c:a2:57:f2:2d:
                    6f:53:1c:44:55:6e:e9:62:b5:13:25:4d:31:6d:9e:
                    f9:97:70:17:b5:f9:c7:5e:7c:54:44:5d:1e:88:3f:
                    ac:e7:59:ca:06:d9:d2:91:17
                Exponent: 65537 (0x10001)
        X509v3 extensions:
            X509v3 Subject Key Identifier: 
                2E:28:7A:8D:84:C9:DD:73:43:B3:9D:CA:49:5C:2D:E0:5F:46:D9:A8
            X509v3 Authority Key Identifier: 
                keyid:2E:28:7A:8D:84:C9:DD:73:43:B3:9D:CA:49:5C:2D:E0:5F:46:D9:A8
                DirName:/C=US/ST=Some-State/O=Example Company/CN=OmniAuth SAML Testing Certificate
                serial:9A:BB:68:98:26:E0:37:BD

            X509v3 Basic Constraints: 
                CA:TRUE
    Signature Algorithm: sha1WithRSAEncryption
        83:ea:eb:c1:9a:28:a3:c0:c4:e3:b8:e6:68:15:fe:bd:42:41:
        21:58:12:29:d0:78:e5:b0:e4:2f:b1:60:4d:c6:b6:87:5b:6c:
        9a:05:0b:f6:71:72:be:9f:45:0c:44:3b:21:8c:39:e7:df:72:
        c2:1a:d0:7f:d1:9f:b0:86:77:ef:81:bb:89:ef:42:f0:9a:94:
        45:b7:62:3f:8f:cc:32:f3:a3:57:54:73:cb:2a:57:07:27:da:
        63:6d:2d:0f:08:33:e8:99:4b:b3:bb:27:87:b3:b7:b3:dd:c5:
        2a:95:a1:0a:31:c4:e3:7e:02:27:06:b5:ab:99:c7:a8:d4:e0:
        91:9c
-----BEGIN CERTIFICATE-----
MIIDHDCCAoWgAwIBAgIJAJq7aJgm4De9MA0GCSqGSIb3DQEBBQUAMGgxCzAJBgNV
BAYTAlVTMRMwEQYDVQQIEwpTb21lLVN0YXRlMRgwFgYDVQQKEw9FeGFtcGxlIENv
bXBhbnkxKjAoBgNVBAMTIU9tbmlBdXRoIFNBTUwgVGVzdGluZyBDZXJ0aWZpY2F0
ZTAeFw0xMjExMDgyMDI5NTFaFw0xMjEyMDgyMDI5NTFaMGgxCzAJBgNVBAYTAlVT
MRMwEQYDVQQIEwpTb21lLVN0YXRlMRgwFgYDVQQKEw9FeGFtcGxlIENvbXBhbnkx
KjAoBgNVBAMTIU9tbmlBdXRoIFNBTUwgVGVzdGluZyBDZXJ0aWZpY2F0ZTCBnzAN
BgkqhkiG9w0BAQEFAAOBjQAwgYkCgYEAzwg6Rakhf6boh5E2zve9Lp6dSjMTdrJh
FQ1WRZwMOfRO7GPD9c7RetnxuPbg6PyBfSdFoGCJvMswDJMa7DZAlbgsf1WyOw9g
aHzgf4j79XlFpis3XKJX8i1vUxxEVW7pYrUTJU0xbZ75l3AXtfnHXnxURF0eiD+s
51nKBtnSkRcCAwEAAaOBzTCByjAdBgNVHQ4EFgQULih6jYTJ3XNDs53KSVwt4F9G
2agwgZoGA1UdIwSBkjCBj4AULih6jYTJ3XNDs53KSVwt4F9G2aihbKRqMGgxCzAJ
BgNVBAYTAlVTMRMwEQYDVQQIEwpTb21lLVN0YXRlMRgwFgYDVQQKEw9FeGFtcGxl
IENvbXBhbnkxKjAoBgNVBAMTIU9tbmlBdXRoIFNBTUwgVGVzdGluZyBDZXJ0aWZp
Y2F0ZYIJAJq7aJgm4De9MAwGA1UdEwQFMAMBAf8wDQYJKoZIhvcNAQEFBQADgYEA
g+rrwZooo8DE47jmaBX+vUJBIVgSKdB45bDkL7FgTca2h1tsmgUL9nFyvp9FDEQ7
IYw5599ywhrQf9GfsIZ374G7ie9C8JqURbdiP4/MMvOjV1RzyypXByfaY20tDwgz
6JlLs7snh7O3s93FKpWhCjHE434CJwa1q5nHqNTgkZw=
-----END CERTIFICATE-----
